target datalayout = "e-m:e-p270:32:32-p271:32:32-p272:64:64-i64:64-i128:128-f80:128-n8:16:32:64-S128"
target triple = "x86_64-pc-linux-gnu"

%"struct.llvm::detail::PunnedPointer.161" = type { [8 x i8] }
%"class.clang::SourceLocation" = type { i32 }
%"class.clang::QualType" = type { %"class.llvm::PointerIntPair.180" }
%"class.llvm::PointerIntPair.180" = type { %"struct.llvm::detail::PunnedPointer.181" }
%"struct.llvm::detail::PunnedPointer.181" = type { [8 x i8] }
%"class.clang::Stmt" = type { %union.anon.339 }
%union.anon.339 = type { %"class.clang::Stmt::PseudoObjectExprBitfields" }
%"class.clang::Stmt::PseudoObjectExprBitfields" = type { i64 }
%"class.clang::InitListExpr" = type { %"class.clang::Expr", %"class.clang::ASTVector", %"class.clang::SourceLocation", %"class.clang::SourceLocation", %"class.llvm::PointerIntPair.616", %"class.llvm::PointerUnion.618" }
%"class.clang::Expr" = type { %"class.clang::ValueStmt", %"class.clang::QualType" }
%"class.clang::ValueStmt" = type { %"class.clang::Stmt" }
%"class.clang::ASTVector" = type { ptr, ptr, %"class.llvm::PointerIntPair.614" }
%"class.llvm::PointerIntPair.614" = type { %"struct.llvm::detail::PunnedPointer.615" }
%"struct.llvm::detail::PunnedPointer.615" = type { [8 x i8] }
%"class.llvm::PointerIntPair.616" = type { %"struct.llvm::detail::PunnedPointer.617" }
%"struct.llvm::detail::PunnedPointer.617" = type { [8 x i8] }
%"class.llvm::PointerUnion.618" = type { %"class.llvm::pointer_union_detail::PointerUnionMembers.619" }
%"class.llvm::pointer_union_detail::PointerUnionMembers.619" = type { %"class.llvm::pointer_union_detail::PointerUnionMembers.620" }
%"class.llvm::pointer_union_detail::PointerUnionMembers.620" = type { %"class.llvm::pointer_union_detail::PointerUnionMembers.621" }
%"class.llvm::pointer_union_detail::PointerUnionMembers.621" = type { %"class.llvm::PointerIntPair.622" }
%"class.llvm::PointerIntPair.622" = type { %"struct.llvm::detail::PunnedPointer.161" }

; Function Attrs: mustprogress nounwind uwtable
define linkonce_odr hidden noundef ptr @_ZN4llvm21PointerLikeTypeTraitsIPN5clang12InitListExprEE18getFromVoidPointerEPv(ptr noundef %0) #0 comdat align 2 {
  %2 = alloca ptr, align 8
  store ptr %0, ptr %2, align 8
  %3 = load ptr, ptr %2, align 8
  ret ptr %3
}

; Function Attrs: mustprogress nounwind uwtable
define linkonce_odr hidden noundef i64 @_ZNK4llvm6detail13PunnedPointerIPN5clang12InitListExprEE5asIntEv(ptr noundef nonnull align 8 dereferenceable(8) %0) #0 comdat align 2 {
  %2 = alloca ptr, align 8
  %3 = alloca i64, align 8
  store ptr %0, ptr %2, align 8
  %4 = load ptr, ptr %2, align 8
  store i64 0, ptr %3, align 8
  %5 = getelementptr inbounds nuw %"struct.llvm::detail::PunnedPointer.617", ptr %4, i32 0, i32 0
  %6 = getelementptr inbounds [8 x i8], ptr %5, i64 0, i64 0
  call void @llvm.memcpy.p0.p0.i64(ptr align 8 %3, ptr align 8 %6, i64 8, i1 false)
  %7 = load i64, ptr %3, align 8
  ret i64 %7
}

; Function Attrs: mustprogress nounwind uwtable
define linkonce_odr hidden noundef ptr @_ZN4llvm18PointerIntPairInfoIPN5clang12InitListExprELj1ENS_21PointerLikeTypeTraitsIS3_EEE10getPointerEl(i64 noundef %0) #0 comdat align 2 {
  %2 = alloca i64, align 8
  store i64 %0, ptr %2, align 8
  %3 = load i64, ptr %2, align 8
  %4 = and i64 %3, -8
  %5 = inttoptr i64 %4 to ptr
  %6 = call noundef ptr @_ZN4llvm21PointerLikeTypeTraitsIPN5clang12InitListExprEE18getFromVoidPointerEPv(ptr noundef %5)
  ret ptr %6
}

; Function Attrs: mustprogress nounwind uwtable
define linkonce_odr hidden noundef i64 @_ZN4llvm18PointerIntPairInfoIPN5clang12InitListExprELj1ENS_21PointerLikeTypeTraitsIS3_EEE6getIntEl(i64 noundef %0) #0 comdat align 2 {
  %2 = alloca i64, align 8
  store i64 %0, ptr %2, align 8
  %3 = load i64, ptr %2, align 8
  %4 = ashr i64 %3, 2
  %5 = and i64 %4, 1
  ret i64 %5
}

; Function Attrs: mustprogress nounwind uwtable
define linkonce_odr hidden noundef i64 @_ZNK4llvm6detail13PunnedPointerIPN5clang12InitListExprEEcvlEv(ptr noundef nonnull align 8 dereferenceable(8) %0) #0 comdat align 2 {
  %2 = alloca ptr, align 8
  store ptr %0, ptr %2, align 8
  %3 = load ptr, ptr %2, align 8
  %4 = call noundef i64 @_ZNK4llvm6detail13PunnedPointerIPN5clang12InitListExprEE5asIntEv(ptr noundef nonnull align 8 dereferenceable(8) %3)
  ret i64 %4
}

; Function Attrs: mustprogress nounwind uwtable
define linkonce_odr hidden noundef ptr @_ZNK4llvm14PointerIntPairIPN5clang12InitListExprELj1EbNS_21PointerLikeTypeTraitsIS3_EENS_18PointerIntPairInfoIS3_Lj1ES5_EEE10getPointerEv(ptr noundef nonnull align 8 dereferenceable(8) %0) #0 comdat align 2 {
  %2 = alloca ptr, align 8
  store ptr %0, ptr %2, align 8
  %3 = load ptr, ptr %2, align 8
  %4 = getelementptr inbounds nuw %"class.llvm::PointerIntPair.616", ptr %3, i32 0, i32 0
  %5 = call noundef i64 @_ZNK4llvm6detail13PunnedPointerIPN5clang12InitListExprEEcvlEv(ptr noundef nonnull align 8 dereferenceable(8) %4)
  %6 = call noundef ptr @_ZN4llvm18PointerIntPairInfoIPN5clang12InitListExprELj1ENS_21PointerLikeTypeTraitsIS3_EEE10getPointerEl(i64 noundef %5)
  ret ptr %6
}

; Function Attrs: mustprogress nounwind uwtable
define linkonce_odr hidden noundef zeroext i1 @_ZNK4llvm14PointerIntPairIPN5clang12InitListExprELj1EbNS_21PointerLikeTypeTraitsIS3_EENS_18PointerIntPairInfoIS3_Lj1ES5_EEE6getIntEv(ptr noundef nonnull align 8 dereferenceable(8) %0) #0 comdat align 2 {
  %2 = alloca ptr, align 8
  store ptr %0, ptr %2, align 8
  %3 = load ptr, ptr %2, align 8
  %4 = getelementptr inbounds nuw %"class.llvm::PointerIntPair.616", ptr %3, i32 0, i32 0
  %5 = call noundef i64 @_ZNK4llvm6detail13PunnedPointerIPN5clang12InitListExprEEcvlEv(ptr noundef nonnull align 8 dereferenceable(8) %4)
  %6 = call noundef i64 @_ZN4llvm18PointerIntPairInfoIPN5clang12InitListExprELj1ENS_21PointerLikeTypeTraitsIS3_EEE6getIntEl(i64 noundef %5)
  %7 = icmp ne i64 %6, 0
  ret i1 %7
}

; Function Attrs: mustprogress nounwind uwtable
define linkonce_odr hidden noundef ptr @_ZNK5clang12InitListExpr15getSemanticFormEv(ptr noundef nonnull align 8 dereferenceable(64) %0) #0 comdat align 2 {
  %2 = alloca ptr, align 8
  store ptr %0, ptr %2, align 8
  %3 = load ptr, ptr %2, align 8
  %4 = call noundef zeroext i1 @_ZNK5clang12InitListExpr14isSemanticFormEv(ptr noundef nonnull align 8 dereferenceable(64) %3)
  br i1 %4, label %5, label %6

5:                                                ; preds = %1
  br label %9

6:                                                ; preds = %1
  %7 = getelementptr inbounds nuw %"class.clang::InitListExpr", ptr %3, i32 0, i32 4
  %8 = call noundef ptr @_ZNK4llvm14PointerIntPairIPN5clang12InitListExprELj1EbNS_21PointerLikeTypeTraitsIS3_EENS_18PointerIntPairInfoIS3_Lj1ES5_EEE10getPointerEv(ptr noundef nonnull align 8 dereferenceable(8) %7)
  br label %9

9:                                                ; preds = %6, %5
  %10 = phi ptr [ null, %5 ], [ %8, %6 ]
  ret ptr %10
}

; Function Attrs: mustprogress nounwind uwtable
define internal noundef zeroext i1 @_ZZNK12_GLOBAL__N_114PaddingChecker12checkASTDeclEPKN5clang19TranslationUnitDeclERNS1_4ento15AnalysisManagerERNS5_11BugReporterEENK12LocalVisitor23shouldVisitImplicitCodeEv(ptr noundef nonnull align 8 dereferenceable(8) %0) #0 align 2 {
  %2 = alloca ptr, align 8
  store ptr %0, ptr %2, align 8
  ret i1 true
}

; Function Attrs: mustprogress nounwind uwtable
define linkonce_odr hidden noundef ptr @_ZNK5clang12InitListExpr16getSyntacticFormEv(ptr noundef nonnull align 8 dereferenceable(64) %0) #0 comdat align 2 {
  %2 = alloca ptr, align 8
  store ptr %0, ptr %2, align 8
  %3 = load ptr, ptr %2, align 8
  %4 = call noundef zeroext i1 @_ZNK5clang12InitListExpr14isSemanticFormEv(ptr noundef nonnull align 8 dereferenceable(64) %3)
  br i1 %4, label %5, label %8

5:                                                ; preds = %1
  %6 = getelementptr inbounds nuw %"class.clang::InitListExpr", ptr %3, i32 0, i32 4
  %7 = call noundef ptr @_ZNK4llvm14PointerIntPairIPN5clang12InitListExprELj1EbNS_21PointerLikeTypeTraitsIS3_EENS_18PointerIntPairInfoIS3_Lj1ES5_EEE10getPointerEv(ptr noundef nonnull align 8 dereferenceable(8) %6)
  br label %9

8:                                                ; preds = %1
  br label %9

9:                                                ; preds = %8, %5
  %10 = phi ptr [ %7, %5 ], [ null, %8 ]
  ret ptr %10
}

; Function Attrs: mustprogress nounwind uwtable
define internal noundef nonnull align 8 dereferenceable(8) ptr @_ZN5clang19RecursiveASTVisitorIZNK12_GLOBAL__N_114PaddingChecker12checkASTDeclEPKNS_19TranslationUnitDeclERNS_4ento15AnalysisManagerERNS6_11BugReporterEE12LocalVisitorE10getDerivedEv(ptr noundef nonnull align 1 dereferenceable(1) %0) #0 align 2 {
  %2 = alloca ptr, align 8
  store ptr %0, ptr %2, align 8
  %3 = load ptr, ptr %2, align 8
  ret ptr %3
}

; Function Attrs: mustprogress nounwind uwtable
define linkonce_odr hidden noundef zeroext i1 @_ZNK5clang12InitListExpr15isSyntacticFormEv(ptr noundef nonnull align 8 dereferenceable(64) %0) #0 comdat align 2 {
  %2 = alloca ptr, align 8
  store ptr %0, ptr %2, align 8
  %3 = load ptr, ptr %2, align 8
  %4 = getelementptr inbounds nuw %"class.clang::InitListExpr", ptr %3, i32 0, i32 4
  %5 = call noundef zeroext i1 @_ZNK4llvm14PointerIntPairIPN5clang12InitListExprELj1EbNS_21PointerLikeTypeTraitsIS3_EENS_18PointerIntPairInfoIS3_Lj1ES5_EEE6getIntEv(ptr noundef nonnull align 8 dereferenceable(8) %4)
  br i1 %5, label %6, label %11

6:                                                ; preds = %1
  %7 = getelementptr inbounds nuw %"class.clang::InitListExpr", ptr %3, i32 0, i32 4
  %8 = call noundef ptr @_ZNK4llvm14PointerIntPairIPN5clang12InitListExprELj1EbNS_21PointerLikeTypeTraitsIS3_EENS_18PointerIntPairInfoIS3_Lj1ES5_EEE10getPointerEv(ptr noundef nonnull align 8 dereferenceable(8) %7)
  %9 = icmp ne ptr %8, null
  %10 = xor i1 %9, true
  br label %11

11:                                               ; preds = %6, %1
  %12 = phi i1 [ true, %1 ], [ %10, %6 ]
  ret i1 %12
}

; Function Attrs: mustprogress nounwind uwtable
define linkonce_odr hidden noundef zeroext i1 @_ZNK5clang12InitListExpr14isSemanticFormEv(ptr noundef nonnull align 8 dereferenceable(64) %0) #0 comdat align 2 {
  %2 = alloca ptr, align 8
  store ptr %0, ptr %2, align 8
  %3 = load ptr, ptr %2, align 8
  %4 = getelementptr inbounds nuw %"class.clang::InitListExpr", ptr %3, i32 0, i32 4
  %5 = call noundef zeroext i1 @_ZNK4llvm14PointerIntPairIPN5clang12InitListExprELj1EbNS_21PointerLikeTypeTraitsIS3_EENS_18PointerIntPairInfoIS3_Lj1ES5_EEE6getIntEv(ptr noundef nonnull align 8 dereferenceable(8) %4)
  ret i1 %5
}

; Function Attrs: mustprogress nounwind uwtable
define internal noundef zeroext i1 @_ZN5clang19RecursiveASTVisitorIZNK12_GLOBAL__N_114PaddingChecker12checkASTDeclEPKNS_19TranslationUnitDeclERNS_4ento15AnalysisManagerERNS6_11BugReporterEE12LocalVisitorE20TraverseInitListExprEPNS_12InitListExprEPN4llvm15SmallVectorImplINSF_14PointerIntPairIPNS_4StmtELj1EbNSF_21PointerLikeTypeTraitsISJ_EENSF_18PointerIntPairInfoISJ_Lj1ESL_EEEEEE(ptr noundef nonnull align 1 dereferenceable(1) %0, ptr noundef %1, ptr noundef %2) #0 align 2 {
  %4 = alloca i1, align 1
  %5 = alloca ptr, align 8
  %6 = alloca ptr, align 8
  %7 = alloca ptr, align 8
  store ptr %0, ptr %5, align 8
  store ptr %1, ptr %6, align 8
  store ptr %2, ptr %7, align 8
  %8 = load ptr, ptr %5, align 8
  %9 = load ptr, ptr %6, align 8
  %10 = call noundef zeroext i1 @_ZNK5clang12InitListExpr14isSemanticFormEv(ptr noundef nonnull align 8 dereferenceable(64) %9)
  br i1 %10, label %11, label %23

11:                                               ; preds = %3
  %12 = load ptr, ptr %6, align 8
  %13 = call noundef zeroext i1 @_ZNK5clang12InitListExpr15isSyntacticFormEv(ptr noundef nonnull align 8 dereferenceable(64) %12)
  br i1 %13, label %14, label %23

14:                                               ; preds = %11
  br label %15

15:                                               ; preds = %14
  %16 = call noundef nonnull align 8 dereferenceable(8) ptr @_ZN5clang19RecursiveASTVisitorIZNK12_GLOBAL__N_114PaddingChecker12checkASTDeclEPKNS_19TranslationUnitDeclERNS_4ento15AnalysisManagerERNS6_11BugReporterEE12LocalVisitorE10getDerivedEv(ptr noundef nonnull align 1 dereferenceable(1) %8)
  %17 = load ptr, ptr %6, align 8
  %18 = load ptr, ptr %7, align 8
  %19 = call noundef zeroext i1 @_ZN5clang19RecursiveASTVisitorIZNK12_GLOBAL__N_114PaddingChecker12checkASTDeclEPKNS_19TranslationUnitDeclERNS_4ento15AnalysisManagerERNS6_11BugReporterEE12LocalVisitorE28TraverseSynOrSemInitListExprEPNS_12InitListExprEPN4llvm15SmallVectorImplINSF_14PointerIntPairIPNS_4StmtELj1EbNSF_21PointerLikeTypeTraitsISJ_EENSF_18PointerIntPairInfoISJ_Lj1ESL_EEEEEE(ptr noundef nonnull align 1 dereferenceable(1) %16, ptr noundef %17, ptr noundef %18)
  br i1 %19, label %21, label %20

20:                                               ; preds = %15
  store i1 false, ptr %4, align 1
  br label %60

21:                                               ; preds = %15
  br label %22

22:                                               ; preds = %21
  store i1 true, ptr %4, align 1
  br label %60

23:                                               ; preds = %11, %3
  br label %24

24:                                               ; preds = %23
  %25 = call noundef nonnull align 8 dereferenceable(8) ptr @_ZN5clang19RecursiveASTVisitorIZNK12_GLOBAL__N_114PaddingChecker12checkASTDeclEPKNS_19TranslationUnitDeclERNS_4ento15AnalysisManagerERNS6_11BugReporterEE12LocalVisitorE10getDerivedEv(ptr noundef nonnull align 1 dereferenceable(1) %8)
  %26 = load ptr, ptr %6, align 8
  %27 = call noundef zeroext i1 @_ZNK5clang12InitListExpr14isSemanticFormEv(ptr noundef nonnull align 8 dereferenceable(64) %26)
  br i1 %27, label %28, label %31

28:                                               ; preds = %24
  %29 = load ptr, ptr %6, align 8
  %30 = call noundef ptr @_ZNK5clang12InitListExpr16getSyntacticFormEv(ptr noundef nonnull align 8 dereferenceable(64) %29)
  br label %33

31:                                               ; preds = %24
  %32 = load ptr, ptr %6, align 8
  br label %33

33:                                               ; preds = %31, %28
  %34 = phi ptr [ %30, %28 ], [ %32, %31 ]
  %35 = load ptr, ptr %7, align 8
  %36 = call noundef zeroext i1 @_ZN5clang19RecursiveASTVisitorIZNK12_GLOBAL__N_114PaddingChecker12checkASTDeclEPKNS_19TranslationUnitDeclERNS_4ento15AnalysisManagerERNS6_11BugReporterEE12LocalVisitorE28TraverseSynOrSemInitListExprEPNS_12InitListExprEPN4llvm15SmallVectorImplINSF_14PointerIntPairIPNS_4StmtELj1EbNSF_21PointerLikeTypeTraitsISJ_EENSF_18PointerIntPairInfoISJ_Lj1ESL_EEEEEE(ptr noundef nonnull align 1 dereferenceable(1) %25, ptr noundef %34, ptr noundef %35)
  br i1 %36, label %38, label %37

37:                                               ; preds = %33
  store i1 false, ptr %4, align 1
  br label %60

38:                                               ; preds = %33
  br label %39

39:                                               ; preds = %38
  %40 = call noundef nonnull align 8 dereferenceable(8) ptr @_ZN5clang19RecursiveASTVisitorIZNK12_GLOBAL__N_114PaddingChecker12checkASTDeclEPKNS_19TranslationUnitDeclERNS_4ento15AnalysisManagerERNS6_11BugReporterEE12LocalVisitorE10getDerivedEv(ptr noundef nonnull align 1 dereferenceable(1) %8)
  %41 = call noundef zeroext i1 @_ZZNK12_GLOBAL__N_114PaddingChecker12checkASTDeclEPKN5clang19TranslationUnitDeclERNS1_4ento15AnalysisManagerERNS5_11BugReporterEENK12LocalVisitor23shouldVisitImplicitCodeEv(ptr noundef nonnull align 8 dereferenceable(8) %40)
  br i1 %41, label %42, label %59

42:                                               ; preds = %39
  br label %43

43:                                               ; preds = %42
  %44 = call noundef nonnull align 8 dereferenceable(8) ptr @_ZN5clang19RecursiveASTVisitorIZNK12_GLOBAL__N_114PaddingChecker12checkASTDeclEPKNS_19TranslationUnitDeclERNS_4ento15AnalysisManagerERNS6_11BugReporterEE12LocalVisitorE10getDerivedEv(ptr noundef nonnull align 1 dereferenceable(1) %8)
  %45 = load ptr, ptr %6, align 8
  %46 = call noundef zeroext i1 @_ZNK5clang12InitListExpr14isSemanticFormEv(ptr noundef nonnull align 8 dereferenceable(64) %45)
  br i1 %46, label %47, label %49

47:                                               ; preds = %43
  %48 = load ptr, ptr %6, align 8
  br label %52

49:                                               ; preds = %43
  %50 = load ptr, ptr %6, align 8
  %51 = call noundef ptr @_ZNK5clang12InitListExpr15getSemanticFormEv(ptr noundef nonnull align 8 dereferenceable(64) %50)
  br label %52

52:                                               ; preds = %49, %47
  %53 = phi ptr [ %48, %47 ], [ %51, %49 ]
  %54 = load ptr, ptr %7, align 8
  %55 = call noundef zeroext i1 @_ZN5clang19RecursiveASTVisitorIZNK12_GLOBAL__N_114PaddingChecker12checkASTDeclEPKNS_19TranslationUnitDeclERNS_4ento15AnalysisManagerERNS6_11BugReporterEE12LocalVisitorE28TraverseSynOrSemInitListExprEPNS_12InitListExprEPN4llvm15SmallVectorImplINSF_14PointerIntPairIPNS_4StmtELj1EbNSF_21PointerLikeTypeTraitsISJ_EENSF_18PointerIntPairInfoISJ_Lj1ESL_EEEEEE(ptr noundef nonnull align 1 dereferenceable(1) %44, ptr noundef %53, ptr noundef %54)
  br i1 %55, label %57, label %56

56:                                               ; preds = %52
  store i1 false, ptr %4, align 1
  br label %60

57:                                               ; preds = %52
  br label %58

58:                                               ; preds = %57
  br label %59

59:                                               ; preds = %58, %39
  store i1 true, ptr %4, align 1
  br label %60

60:                                               ; preds = %59, %56, %37, %22, %20
  %61 = load i1, ptr %4, align 1
  ret i1 %61
}