; Function Attrs: mustprogress nounwind uwtable
define internal fastcc noundef zeroext i1 @_ZN5clang19RecursiveASTVisitorIZNK12_GLOBAL__N_114PaddingChecker12checkASTDeclEPKNS_19TranslationUnitDeclERNS_4ento15AnalysisManagerERNS6_11BugReporterEE12LocalVisitorE20TraverseInitListExprEPNS_12InitListExprEPN4llvm15SmallVectorImplINSF_14PointerIntPairIPNS_4StmtELj1EbNSF_21PointerLikeTypeTraitsISJ_EENSF_18PointerIntPairInfoISJ_Lj1ESL_EEEEEE(ptr noundef nonnull align 1 dereferenceable(1) %0, ptr noundef %1, ptr noundef %2) unnamed_addr #0 align 2 {
  %4 = getelementptr inbounds nuw i8, ptr %1, i64 48
  %.0.copyload.i.i.i.i = load i64, ptr %4, align 8
  %5 = and i64 %.0.copyload.i.i.i.i, 4
  %.not = icmp eq i64 %5, 0
  br i1 %.not, label %12, label %6

6:                                                ; preds = %3
  %.not.i = icmp ult i64 %.0.copyload.i.i.i.i, 8
  br i1 %.not.i, label %7, label %9

7:                                                ; preds = %6
  %8 = tail call fastcc noundef zeroext i1 @_ZN5clang19RecursiveASTVisitorIZNK12_GLOBAL__N_114PaddingChecker12checkASTDeclEPKNS_19TranslationUnitDeclERNS_4ento15AnalysisManagerERNS6_11BugReporterEE12LocalVisitorE28TraverseSynOrSemInitListExprEPNS_12InitListExprEPN4llvm15SmallVectorImplINSF_14PointerIntPairIPNS_4StmtELj1EbNSF_21PointerLikeTypeTraitsISJ_EENSF_18PointerIntPairInfoISJ_Lj1ESL_EEEEEE(ptr noundef nonnull align 1 dereferenceable(1) %0, ptr noundef nonnull %1, ptr noundef %2)
  br label %21

9:                                                ; preds = %6
  %10 = and i64 %.0.copyload.i.i.i.i, -8
  %11 = inttoptr i64 %10 to ptr
  br label %12

12:                                               ; preds = %3, %9
  %13 = phi ptr [ %11, %9 ], [ %1, %3 ]
  %14 = tail call fastcc noundef zeroext i1 @_ZN5clang19RecursiveASTVisitorIZNK12_GLOBAL__N_114PaddingChecker12checkASTDeclEPKNS_19TranslationUnitDeclERNS_4ento15AnalysisManagerERNS6_11BugReporterEE12LocalVisitorE28TraverseSynOrSemInitListExprEPNS_12InitListExprEPN4llvm15SmallVectorImplINSF_14PointerIntPairIPNS_4StmtELj1EbNSF_21PointerLikeTypeTraitsISJ_EENSF_18PointerIntPairInfoISJ_Lj1ESL_EEEEEE(ptr noundef nonnull align 1 dereferenceable(1) %0, ptr noundef %13, ptr noundef %2)
  br i1 %14, label %15, label %21

15:                                               ; preds = %12
  %.0.copyload.i.i.i.i18 = load i64, ptr %4, align 8
  %16 = and i64 %.0.copyload.i.i.i.i18, 4
  %.not21 = icmp eq i64 %16, 0
  %17 = and i64 %.0.copyload.i.i.i.i18, -8
  %18 = inttoptr i64 %17 to ptr
  %19 = select i1 %.not21, ptr %18, ptr %1
  %20 = tail call fastcc noundef zeroext i1 @_ZN5clang19RecursiveASTVisitorIZNK12_GLOBAL__N_114PaddingChecker12checkASTDeclEPKNS_19TranslationUnitDeclERNS_4ento15AnalysisManagerERNS6_11BugReporterEE12LocalVisitorE28TraverseSynOrSemInitListExprEPNS_12InitListExprEPN4llvm15SmallVectorImplINSF_14PointerIntPairIPNS_4StmtELj1EbNSF_21PointerLikeTypeTraitsISJ_EENSF_18PointerIntPairInfoISJ_Lj1ESL_EEEEEE(ptr noundef nonnull align 1 dereferenceable(1) %0, ptr noundef %19, ptr noundef %2)
  br label %21

21:                                               ; preds = %15, %12, %7
  %.0 = phi i1 [ %8, %7 ], [ false, %12 ], [ %20, %15 ]
  ret i1 %.0
}